target datalayout = "e-m:e-p270:32:32-p271:32:32-p272:64:64-i64:64-i128:128-f80:128-n8:16:32:64-S128"
target triple = "x86_64-pc-linux-gnu"

%struct.job_record = type { i32, ptr, ptr, ptr, ptr, i16, i32, i32, i32, ptr, i32, ptr, ptr, i16, ptr, double, i64, ptr, ptr, ptr, ptr, ptr, ptr, i32, ptr, i32, i64, i64, i32, i32, ptr, i16, i64, i64, i8, i32, ptr, ptr, ptr, ptr, ptr, ptr, ptr, ptr, i32, ptr, ptr, i32, ptr, i32, ptr, i32, ptr, i32, ptr, ptr, ptr, ptr, ptr, ptr, i32, i16, i64, ptr, ptr, ptr, ptr, %struct.acct_policy_limit_set_t, i16, ptr, ptr, ptr, ptr, ptr, i32, ptr, ptr, ptr, ptr, ptr, i32, i32, ptr, ptr, ptr, i16, ptr, ptr, i8, ptr, ptr, i64, i64, i8, i32, i32, i8, i32, ptr, i32, i64, i32, ptr, ptr, ptr, i8, i16, i64, i32, ptr, ptr, ptr, ptr, ptr, i16, i32, ptr, ptr, ptr, ptr, i32, ptr, i32, i16, i64, ptr, i32, i32, ptr, i64, ptr, ptr, i64, i32, i32, i64, i32, i32, ptr, ptr, ptr, ptr, ptr, ptr, ptr, ptr, ptr, ptr, ptr, ptr, i32, ptr, i16, i16, i16, i16, ptr, i32, i32, i8, i64 }
%struct.acct_policy_limit_set_t = type { i16, i16, ptr }
%struct.job_resources = type { ptr, ptr, i32, ptr, ptr, ptr, ptr, ptr, i16, ptr, ptr, i32, i32, ptr, i32, ptr, i32, ptr, ptr, ptr, i16, i8 }
%struct.job_details_t = type { i32, ptr, i64, ptr, i32, ptr, i64, ptr, i16, i16, ptr, i16, i32, i32, i32, i16, ptr, i16, ptr, ptr, ptr, i16, ptr, ptr, ptr, ptr, i32, ptr, ptr, ptr, ptr, ptr, i32, i32, i32, ptr, ptr, i16, i32, i32, i32, i32, i32, i32, i16, i16, i32, i8, i8, i32, i32, i64, i64, i16, i32, ptr, ptr, i8, ptr, i32, ptr, i64, ptr, ptr, i16, i16, i16, i8, ptr, ptr, ptr, ptr, ptr, ptr, i64, i32, i32, i8, ptr, i16, ptr, ptr, i16 }

@.str.107 = private unnamed_addr constant [60 x i8] c"%s: %pJ unique allocated node count changed from %lu to %lu\00", align 1
@__func__._get_unique_job_node_cnt = private unnamed_addr constant [25 x i8] c"_get_unique_job_node_cnt\00", align 1

; Function Attrs: nounwind uwtable
define internal void @_get_unique_job_node_cnt(ptr noundef %0, ptr noundef %1, ptr noundef %2) #0 {
  %4 = alloca ptr, align 8
  %5 = alloca ptr, align 8
  %6 = alloca ptr, align 8
  %7 = alloca i64, align 8
  %8 = alloca i64, align 8
  %9 = alloca i64, align 8
  store ptr %0, ptr %4, align 8
  store ptr %1, ptr %5, align 8
  store ptr %2, ptr %6, align 8
  %10 = load ptr, ptr %4, align 8
  %11 = getelementptr inbounds nuw %struct.job_record, ptr %10, i32 0, i32 59
  %12 = load ptr, ptr %11, align 8
  %13 = icmp ne ptr %12, null
  br i1 %13, label %14, label %62

14:                                               ; preds = %3
  %15 = load ptr, ptr %4, align 8
  %16 = getelementptr inbounds nuw %struct.job_record, ptr %15, i32 0, i32 59
  %17 = load ptr, ptr %16, align 8
  %18 = getelementptr inbounds nuw %struct.job_resources, ptr %17, i32 0, i32 13
  %19 = load ptr, ptr %18, align 8
  %20 = icmp ne ptr %19, null
  br i1 %20, label %21, label %62

21:                                               ; preds = %14
  %22 = load ptr, ptr %5, align 8
  %23 = icmp ne ptr %22, null
  br i1 %23, label %24, label %62

24:                                               ; preds = %21
  call void @llvm.lifetime.start.p0(i64 8, ptr %7) #8
  %25 = load ptr, ptr %4, align 8
  %26 = getelementptr inbounds nuw %struct.job_record, ptr %25, i32 0, i32 59
  %27 = load ptr, ptr %26, align 8
  %28 = getelementptr inbounds nuw %struct.job_resources, ptr %27, i32 0, i32 13
  %29 = load ptr, ptr %28, align 8
  %30 = load ptr, ptr %5, align 8
  %31 = call i32 @bit_overlap(ptr noundef %29, ptr noundef %30)
  %32 = sext i32 %31 to i64
  store i64 %32, ptr %7, align 8
  %33 = load i64, ptr %7, align 8
  %34 = icmp ne i64 %33, 0
  br i1 %34, label %35, label %61

35:                                               ; preds = %24
  call void @llvm.lifetime.start.p0(i64 8, ptr %8) #8
  %36 = load ptr, ptr %4, align 8
  %37 = getelementptr inbounds nuw %struct.job_record, ptr %36, i32 0, i32 59
  %38 = load ptr, ptr %37, align 8
  %39 = getelementptr inbounds nuw %struct.job_resources, ptr %38, i32 0, i32 13
  %40 = load ptr, ptr %39, align 8
  %41 = call i32 @bit_set_count(ptr noundef %40)
  %42 = sext i32 %41 to i64
  store i64 %42, ptr %8, align 8
  %43 = load i64, ptr %8, align 8
  %44 = load i64, ptr %7, align 8
  %45 = sub i64 %43, %44
  %46 = load ptr, ptr %6, align 8
  store i64 %45, ptr %46, align 8
  br label %47

47:                                               ; preds = %35
  br label %48

48:                                               ; preds = %47
  %49 = call i32 @get_log_level()
  %50 = icmp sge i32 %49, 6
  br i1 %50, label %51, label %56

51:                                               ; preds = %48
  %52 = load ptr, ptr %4, align 8
  %53 = load i64, ptr %8, align 8
  %54 = load ptr, ptr %6, align 8
  %55 = load i64, ptr %54, align 8
  call void (i32, ptr, ...) @log_var(i32 noundef 6, ptr noundef @.str.107, ptr noundef @__func__._get_unique_job_node_cnt, ptr noundef %52, i64 noundef %53, i64 noundef %55)
  br label %56

56:                                               ; preds = %51, %48
  br label %57

57:                                               ; preds = %56
  br label %58

58:                                               ; preds = %57
  br label %59

59:                                               ; preds = %58
  br label %60

60:                                               ; preds = %59
  call void @llvm.lifetime.end.p0(i64 8, ptr %8) #8
  br label %61

61:                                               ; preds = %60, %24
  call void @llvm.lifetime.end.p0(i64 8, ptr %7) #8
  br label %114

62:                                               ; preds = %21, %14, %3
  %63 = load ptr, ptr %4, align 8
  %64 = getelementptr inbounds nuw %struct.job_record, ptr %63, i32 0, i32 30
  %65 = load ptr, ptr %64, align 8
  %66 = icmp ne ptr %65, null
  br i1 %66, label %67, label %113

67:                                               ; preds = %62
  %68 = load ptr, ptr %4, align 8
  %69 = getelementptr inbounds nuw %struct.job_record, ptr %68, i32 0, i32 30
  %70 = load ptr, ptr %69, align 8
  %71 = getelementptr inbounds nuw %struct.job_details_t, ptr %70, i32 0, i32 60
  %72 = load ptr, ptr %71, align 8
  %73 = icmp ne ptr %72, null
  br i1 %73, label %74, label %113

74:                                               ; preds = %67
  %75 = load ptr, ptr %5, align 8
  %76 = icmp ne ptr %75, null
  br i1 %76, label %77, label %113

77:                                               ; preds = %74
  call void @llvm.lifetime.start.p0(i64 8, ptr %9) #8
  %78 = load ptr, ptr %4, align 8
  %79 = getelementptr inbounds nuw %struct.job_record, ptr %78, i32 0, i32 30
  %80 = load ptr, ptr %79, align 8
  %81 = getelementptr inbounds nuw %struct.job_details_t, ptr %80, i32 0, i32 60
  %82 = load ptr, ptr %81, align 8
  %83 = load ptr, ptr %5, align 8
  %84 = call i32 @bit_overlap(ptr noundef %82, ptr noundef %83)
  %85 = sext i32 %84 to i64
  store i64 %85, ptr %9, align 8
  %86 = load i64, ptr %9, align 8
  %87 = load ptr, ptr %6, align 8
  %88 = load i64, ptr %87, align 8
  %89 = icmp ule i64 %86, %88
  br i1 %89, label %90, label %112

90:                                               ; preds = %77
  %91 = load i64, ptr %9, align 8
  %92 = load ptr, ptr %6, align 8
  %93 = load i64, ptr %92, align 8
  %94 = sub i64 %93, %91
  store i64 %94, ptr %92, align 8
  br label %95

95:                                               ; preds = %90
  br label %96

96:                                               ; preds = %95
  %97 = call i32 @get_log_level()
  %98 = icmp sge i32 %97, 6
  br i1 %98, label %99, label %107

99:                                               ; preds = %96
  %100 = load ptr, ptr %4, align 8
  %101 = load ptr, ptr %6, align 8
  %102 = load i64, ptr %101, align 8
  %103 = load i64, ptr %9, align 8
  %104 = add i64 %102, %103
  %105 = load ptr, ptr %6, align 8
  %106 = load i64, ptr %105, align 8
  call void (i32, ptr, ...) @log_var(i32 noundef 6, ptr noundef @.str.107, ptr noundef @__func__._get_unique_job_node_cnt, ptr noundef %100, i64 noundef %104, i64 noundef %106)
  br label %107

107:                                              ; preds = %99, %96
  br label %108

108:                                              ; preds = %107
  br label %109

109:                                              ; preds = %108
  br label %110

110:                                              ; preds = %109
  br label %111

111:                                              ; preds = %110
  br label %112

112:                                              ; preds = %111, %77
  call void @llvm.lifetime.end.p0(i64 8, ptr %9) #8
  br label %113

113:                                              ; preds = %112, %74, %67, %62
  br label %114

114:                                              ; preds = %113, %61
  ret void
}