; Function Attrs: nounwind uwtable
define internal fastcc void @_get_unique_job_node_cnt(ptr noundef %0, ptr noundef %1, ptr noundef captures(none) %2) unnamed_addr #0 {
  %4 = getelementptr inbounds nuw i8, ptr %0, i64 440
  %5 = load ptr, ptr %4, align 8
  %.not = icmp eq ptr %5, null
  br i1 %.not, label %25, label %6

6:                                                ; preds = %3
  %7 = getelementptr inbounds nuw i8, ptr %5, i64 96
  %8 = load ptr, ptr %7, align 8
  %9 = icmp ne ptr %8, null
  %10 = icmp ne ptr %1, null
  %or.cond = and i1 %10, %9
  br i1 %or.cond, label %11, label %25

11:                                               ; preds = %6
  %12 = tail call i32 @bit_overlap(ptr noundef nonnull %8, ptr noundef nonnull %1) #15
  %.not37 = icmp eq i32 %12, 0
  br i1 %.not37, label %44, label %13

13:                                               ; preds = %11
  %14 = sext i32 %12 to i64
  %15 = load ptr, ptr %4, align 8
  %16 = getelementptr inbounds nuw i8, ptr %15, i64 96
  %17 = load ptr, ptr %16, align 8
  %18 = tail call i32 @bit_set_count(ptr noundef %17) #15
  %19 = sext i32 %18 to i64
  %20 = sub nsw i64 %19, %14
  store i64 %20, ptr %2, align 8
  %21 = tail call i32 @get_log_level() #15
  %22 = icmp sgt i32 %21, 5
  br i1 %22, label %23, label %44

23:                                               ; preds = %13
  %24 = load i64, ptr %2, align 8
  tail call void (i32, ptr, ...) @log_var(i32 noundef 6, ptr noundef nonnull @.str.107, ptr noundef nonnull @__func__._get_unique_job_node_cnt, ptr noundef nonnull %0, i64 noundef %19, i64 noundef %24) #15
  br label %44

25:                                               ; preds = %6, %3
  %26 = getelementptr inbounds nuw i8, ptr %0, i64 216
  %27 = load ptr, ptr %26, align 8
  %.not35 = icmp eq ptr %27, null
  br i1 %.not35, label %44, label %28

28:                                               ; preds = %25
  %29 = getelementptr inbounds nuw i8, ptr %27, i64 376
  %30 = load ptr, ptr %29, align 8
  %31 = icmp ne ptr %30, null
  %32 = icmp ne ptr %1, null
  %or.cond3 = and i1 %32, %31
  br i1 %or.cond3, label %33, label %44

33:                                               ; preds = %28
  %34 = tail call i32 @bit_overlap(ptr noundef nonnull %30, ptr noundef nonnull %1) #15
  %35 = sext i32 %34 to i64
  %36 = load i64, ptr %2, align 8
  %.not36 = icmp ult i64 %36, %35
  br i1 %.not36, label %44, label %37

37:                                               ; preds = %33
  %38 = sub nuw i64 %36, %35
  store i64 %38, ptr %2, align 8
  %39 = tail call i32 @get_log_level() #15
  %40 = icmp sgt i32 %39, 5
  br i1 %40, label %41, label %44

41:                                               ; preds = %37
  %42 = load i64, ptr %2, align 8
  %43 = add i64 %42, %35
  tail call void (i32, ptr, ...) @log_var(i32 noundef 6, ptr noundef nonnull @.str.107, ptr noundef nonnull @__func__._get_unique_job_node_cnt, ptr noundef nonnull %0, i64 noundef %43, i64 noundef %42) #15
  br label %44

44:                                               ; preds = %33, %41, %37, %11, %23, %13, %25, %28
  ret void
}